target datalayout = "e-m:e-p270:32:32-p271:32:32-p272:64:64-i64:64-i128:128-f80:128-n8:16:32:64-S128"
target triple = "x86_64-pc-linux-gnu"

%struct._packet_info = type { ptr, ptr, i32, i32, %struct.nstime_t, %struct.nstime_t, %struct.nstime_t, i8, ptr, ptr, ptr, ptr, %struct._address, %struct._address, %struct._address, %struct._address, %struct._address, %struct._address, i32, ptr, i8, [3 x i8], %struct.anon, i32, i32, i32, i32, ptr, i8, ptr, ptr, i16, i16, i32, i32, i16, i32, i32, ptr, ptr, ptr, i8, i8, i16, i16, i16, i32, i16, i16, ptr, ptr, ptr, ptr, ptr, i32, i32 }
%struct.nstime_t = type { i64, i32 }
%struct._address = type { i32, i32, ptr, ptr }
%struct.anon = type { i8, [3 x i8] }
%struct._frame_data = type <{ i32, i32, i32, i32, i32, [4 x i8], i64, ptr, ptr, ptr, i8, i16, [5 x i8], %struct.nstime_t, %struct.nstime_t, i32, i32 }>
%struct._follow_info = type { i32, ptr, ptr, [2 x i32], [2 x i32], [2 x ptr], i32, i32, %struct._address, %struct._address, ptr, i64 }
%struct.follow_record_t = type { i8, i32, i32, %struct.nstime_t, ptr }
%struct._GByteArray = type { ptr, i32 }

; Function Attrs: inlinehint nounwind null_pointer_is_valid sspstrong uwtable
define internal void @clear_address(ptr noundef %0) #6 {
  %2 = alloca ptr, align 8
  store ptr %0, ptr %2, align 8
  %3 = load ptr, ptr %2, align 8
  %4 = getelementptr inbounds nuw %struct._address, ptr %3, i32 0, i32 0
  store i32 0, ptr %4, align 8
  %5 = load ptr, ptr %2, align 8
  %6 = getelementptr inbounds nuw %struct._address, ptr %5, i32 0, i32 1
  store i32 0, ptr %6, align 4
  %7 = load ptr, ptr %2, align 8
  %8 = getelementptr inbounds nuw %struct._address, ptr %7, i32 0, i32 2
  store ptr null, ptr %8, align 8
  %9 = load ptr, ptr %2, align 8
  %10 = getelementptr inbounds nuw %struct._address, ptr %9, i32 0, i32 3
  store ptr null, ptr %10, align 8
  ret void
}

; Function Attrs: inlinehint null_pointer_is_valid sspstrong uwtable
define internal void @alloc_address_wmem(ptr noundef %0, ptr noundef %1, i32 noundef %2, i32 noundef %3, ptr noundef %4) #7 {
  %6 = alloca ptr, align 8
  %7 = alloca ptr, align 8
  %8 = alloca i32, align 4
  %9 = alloca i32, align 4
  %10 = alloca ptr, align 8
  store ptr %0, ptr %6, align 8
  store ptr %1, ptr %7, align 8
  store i32 %2, ptr %8, align 4
  store i32 %3, ptr %9, align 4
  store ptr %4, ptr %10, align 8
  br label %11

11:                                               ; preds = %5
  br label %12

12:                                               ; preds = %11
  %13 = load ptr, ptr %7, align 8
  call void @clear_address(ptr noundef %13)
  %14 = load i32, ptr %8, align 4
  %15 = load ptr, ptr %7, align 8
  %16 = getelementptr inbounds nuw %struct._address, ptr %15, i32 0, i32 0
  store i32 %14, ptr %16, align 8
  %17 = load i32, ptr %9, align 4
  %18 = icmp eq i32 %17, 0
  br i1 %18, label %19, label %22

19:                                               ; preds = %12
  br label %20

20:                                               ; preds = %19
  br label %21

21:                                               ; preds = %20
  br label %39

22:                                               ; preds = %12
  br label %23

23:                                               ; preds = %22
  br label %24

24:                                               ; preds = %23
  br label %25

25:                                               ; preds = %24
  br label %26

26:                                               ; preds = %25
  %27 = load ptr, ptr %6, align 8
  %28 = load ptr, ptr %10, align 8
  %29 = load i32, ptr %9, align 4
  %30 = sext i32 %29 to i64
  %31 = call ptr @wmem_memdup(ptr noundef %27, ptr noundef %28, i64 noundef %30) #17
  %32 = load ptr, ptr %7, align 8
  %33 = getelementptr inbounds nuw %struct._address, ptr %32, i32 0, i32 3
  store ptr %31, ptr %33, align 8
  %34 = load ptr, ptr %7, align 8
  %35 = getelementptr inbounds nuw %struct._address, ptr %34, i32 0, i32 2
  store ptr %31, ptr %35, align 8
  %36 = load i32, ptr %9, align 4
  %37 = load ptr, ptr %7, align 8
  %38 = getelementptr inbounds nuw %struct._address, ptr %37, i32 0, i32 1
  store i32 %36, ptr %38, align 4
  br label %39

39:                                               ; preds = %26, %21
  ret void
}

; Function Attrs: inlinehint null_pointer_is_valid sspstrong uwtable
define internal void @copy_address_wmem(ptr noundef %0, ptr noundef %1, ptr noundef %2) #7 {
  %4 = alloca ptr, align 8
  %5 = alloca ptr, align 8
  %6 = alloca ptr, align 8
  store ptr %0, ptr %4, align 8
  store ptr %1, ptr %5, align 8
  store ptr %2, ptr %6, align 8
  %7 = load ptr, ptr %4, align 8
  %8 = load ptr, ptr %5, align 8
  %9 = load ptr, ptr %6, align 8
  %10 = getelementptr inbounds nuw %struct._address, ptr %9, i32 0, i32 0
  %11 = load i32, ptr %10, align 8
  %12 = load ptr, ptr %6, align 8
  %13 = getelementptr inbounds nuw %struct._address, ptr %12, i32 0, i32 1
  %14 = load i32, ptr %13, align 4
  %15 = load ptr, ptr %6, align 8
  %16 = getelementptr inbounds nuw %struct._address, ptr %15, i32 0, i32 2
  %17 = load ptr, ptr %16, align 8
  call void @alloc_address_wmem(ptr noundef %7, ptr noundef %8, i32 noundef %11, i32 noundef %14, ptr noundef %17)
  ret void
}

; Function Attrs: inlinehint null_pointer_is_valid sspstrong uwtable
define internal void @copy_address(ptr noundef %0, ptr noundef %1) #7 {
  %3 = alloca ptr, align 8
  %4 = alloca ptr, align 8
  store ptr %0, ptr %3, align 8
  store ptr %1, ptr %4, align 8
  %5 = load ptr, ptr %3, align 8
  %6 = load ptr, ptr %4, align 8
  call void @copy_address_wmem(ptr noundef null, ptr noundef %5, ptr noundef %6)
  ret void
}

; Function Attrs: null_pointer_is_valid sspstrong uwtable
define internal i32 @follow_cdc_data_tap_listener(ptr noundef %0, ptr noundef %1, ptr noundef %2, ptr noundef %3, i32 noundef %4) #1 {
  %6 = alloca ptr, align 8
  %7 = alloca ptr, align 8
  %8 = alloca ptr, align 8
  %9 = alloca ptr, align 8
  %10 = alloca i32, align 4
  %11 = alloca ptr, align 8
  %12 = alloca ptr, align 8
  %13 = alloca ptr, align 8
  %14 = alloca i32, align 4
  %15 = alloca i8, align 1
  %16 = alloca i64, align 8
  %17 = alloca i64, align 8
  %18 = alloca ptr, align 8
  %19 = alloca ptr, align 8
  store ptr %0, ptr %6, align 8
  store ptr %1, ptr %7, align 8
  store ptr %2, ptr %8, align 8
  store ptr %3, ptr %9, align 8
  store i32 %4, ptr %10, align 4
  call void @llvm.lifetime.start.p0(i64 8, ptr %11) #13
  call void @llvm.lifetime.start.p0(i64 8, ptr %12) #13
  %20 = load ptr, ptr %6, align 8
  store ptr %20, ptr %12, align 8
  call void @llvm.lifetime.start.p0(i64 8, ptr %13) #13
  %21 = load ptr, ptr %9, align 8
  store ptr %21, ptr %13, align 8
  call void @llvm.lifetime.start.p0(i64 4, ptr %14) #13
  %22 = load ptr, ptr %13, align 8
  %23 = call i32 @tvb_captured_length(ptr noundef %22)
  store i32 %23, ptr %14, align 4
  call void @llvm.lifetime.start.p0(i64 1, ptr %15) #13
  %24 = load ptr, ptr %12, align 8
  %25 = getelementptr inbounds nuw %struct._follow_info, ptr %24, i32 0, i32 6
  %26 = load i32, ptr %25, align 8
  %27 = icmp eq i32 %26, 0
  br i1 %27, label %28, label %72

28:                                               ; preds = %5
  %29 = load ptr, ptr %7, align 8
  %30 = getelementptr inbounds nuw %struct._packet_info, ptr %29, i32 0, i32 24
  %31 = load i32, ptr %30, align 4
  %32 = icmp eq i32 %31, -1
  br i1 %32, label %33, label %52

33:                                               ; preds = %28
  %34 = load ptr, ptr %7, align 8
  %35 = getelementptr inbounds nuw %struct._packet_info, ptr %34, i32 0, i32 25
  %36 = load i32, ptr %35, align 8
  %37 = load ptr, ptr %12, align 8
  %38 = getelementptr inbounds nuw %struct._follow_info, ptr %37, i32 0, i32 6
  store i32 %36, ptr %38, align 8
  %39 = load ptr, ptr %12, align 8
  %40 = getelementptr inbounds nuw %struct._follow_info, ptr %39, i32 0, i32 8
  %41 = load ptr, ptr %7, align 8
  %42 = getelementptr inbounds nuw %struct._packet_info, ptr %41, i32 0, i32 17
  call void @copy_address(ptr noundef %40, ptr noundef %42)
  %43 = load ptr, ptr %7, align 8
  %44 = getelementptr inbounds nuw %struct._packet_info, ptr %43, i32 0, i32 24
  %45 = load i32, ptr %44, align 4
  %46 = load ptr, ptr %12, align 8
  %47 = getelementptr inbounds nuw %struct._follow_info, ptr %46, i32 0, i32 7
  store i32 %45, ptr %47, align 4
  %48 = load ptr, ptr %12, align 8
  %49 = getelementptr inbounds nuw %struct._follow_info, ptr %48, i32 0, i32 9
  %50 = load ptr, ptr %7, align 8
  %51 = getelementptr inbounds nuw %struct._packet_info, ptr %50, i32 0, i32 16
  call void @copy_address(ptr noundef %49, ptr noundef %51)
  br label %71

52:                                               ; preds = %28
  %53 = load ptr, ptr %7, align 8
  %54 = getelementptr inbounds nuw %struct._packet_info, ptr %53, i32 0, i32 24
  %55 = load i32, ptr %54, align 4
  %56 = load ptr, ptr %12, align 8
  %57 = getelementptr inbounds nuw %struct._follow_info, ptr %56, i32 0, i32 6
  store i32 %55, ptr %57, align 8
  %58 = load ptr, ptr %12, align 8
  %59 = getelementptr inbounds nuw %struct._follow_info, ptr %58, i32 0, i32 8
  %60 = load ptr, ptr %7, align 8
  %61 = getelementptr inbounds nuw %struct._packet_info, ptr %60, i32 0, i32 16
  call void @copy_address(ptr noundef %59, ptr noundef %61)
  %62 = load ptr, ptr %7, align 8
  %63 = getelementptr inbounds nuw %struct._packet_info, ptr %62, i32 0, i32 25
  %64 = load i32, ptr %63, align 8
  %65 = load ptr, ptr %12, align 8
  %66 = getelementptr inbounds nuw %struct._follow_info, ptr %65, i32 0, i32 7
  store i32 %64, ptr %66, align 4
  %67 = load ptr, ptr %12, align 8
  %68 = getelementptr inbounds nuw %struct._follow_info, ptr %67, i32 0, i32 9
  %69 = load ptr, ptr %7, align 8
  %70 = getelementptr inbounds nuw %struct._packet_info, ptr %69, i32 0, i32 17
  call void @copy_address(ptr noundef %68, ptr noundef %70)
  br label %71

71:                                               ; preds = %52, %33
  br label %72

72:                                               ; preds = %71, %5
  %73 = load ptr, ptr %7, align 8
  %74 = getelementptr inbounds nuw %struct._packet_info, ptr %73, i32 0, i32 24
  %75 = load i32, ptr %74, align 4
  %76 = icmp eq i32 %75, -1
  %77 = zext i1 %76 to i8
  store i8 %77, ptr %15, align 1
  call void @llvm.lifetime.start.p0(i64 8, ptr %16) #13
  store i64 1, ptr %16, align 8
  call void @llvm.lifetime.start.p0(i64 8, ptr %17) #13
  store i64 40, ptr %17, align 8
  call void @llvm.lifetime.start.p0(i64 8, ptr %18) #13
  %78 = load i64, ptr %17, align 8
  %79 = icmp eq i64 %78, 1
  br i1 %79, label %80, label %83

80:                                               ; preds = %72
  %81 = load i64, ptr %16, align 8
  %82 = call noalias ptr @g_malloc0(i64 noundef %81) #15
  store ptr %82, ptr %18, align 8
  br label %104

83:                                               ; preds = %72
  %84 = load i64, ptr %16, align 8
  %85 = call i1 @llvm.is.constant.i64(i64 %84)
  br i1 %85, label %86, label %99

86:                                               ; preds = %83
  %87 = load i64, ptr %17, align 8
  %88 = icmp eq i64 %87, 0
  br i1 %88, label %94, label %89

89:                                               ; preds = %86
  %90 = load i64, ptr %16, align 8
  %91 = load i64, ptr %17, align 8
  %92 = udiv i64 -1, %91
  %93 = icmp ule i64 %90, %92
  br i1 %93, label %94, label %99

94:                                               ; preds = %89, %86
  %95 = load i64, ptr %16, align 8
  %96 = load i64, ptr %17, align 8
  %97 = mul i64 %95, %96
  %98 = call noalias ptr @g_malloc0(i64 noundef %97) #15
  store ptr %98, ptr %18, align 8
  br label %103

99:                                               ; preds = %89, %83
  %100 = load i64, ptr %16, align 8
  %101 = load i64, ptr %17, align 8
  %102 = call noalias ptr @g_malloc0_n(i64 noundef %100, i64 noundef %101) #16
  store ptr %102, ptr %18, align 8
  br label %103

103:                                              ; preds = %99, %94
  br label %104

104:                                              ; preds = %103, %80
  %105 = load ptr, ptr %18, align 8
  store ptr %105, ptr %19, align 8
  call void @llvm.lifetime.end.p0(i64 8, ptr %18) #13
  call void @llvm.lifetime.end.p0(i64 8, ptr %17) #13
  call void @llvm.lifetime.end.p0(i64 8, ptr %16) #13
  %106 = load ptr, ptr %19, align 8
  store ptr %106, ptr %11, align 8
  %107 = load i8, ptr %15, align 1, !range !8, !noundef !9
  %108 = trunc i8 %107 to i1
  %109 = load ptr, ptr %11, align 8
  %110 = getelementptr inbounds nuw %struct.follow_record_t, ptr %109, i32 0, i32 0
  %111 = zext i1 %108 to i8
  store i8 %111, ptr %110, align 8
  %112 = load ptr, ptr %7, align 8
  %113 = getelementptr inbounds nuw %struct._packet_info, ptr %112, i32 0, i32 8
  %114 = load ptr, ptr %113, align 8
  %115 = getelementptr inbounds nuw %struct._frame_data, ptr %114, i32 0, i32 0
  %116 = load i32, ptr %115, align 8
  %117 = load ptr, ptr %11, align 8
  %118 = getelementptr inbounds nuw %struct.follow_record_t, ptr %117, i32 0, i32 1
  store i32 %116, ptr %118, align 4
  %119 = load ptr, ptr %11, align 8
  %120 = getelementptr inbounds nuw %struct.follow_record_t, ptr %119, i32 0, i32 3
  %121 = load ptr, ptr %7, align 8
  %122 = getelementptr inbounds nuw %struct._packet_info, ptr %121, i32 0, i32 8
  %123 = load ptr, ptr %122, align 8
  %124 = getelementptr inbounds nuw %struct._frame_data, ptr %123, i32 0, i32 13
  call void @llvm.memcpy.p0.p0.i64(ptr align 8 %120, ptr align 8 %124, i64 16, i1 false)
  %125 = call ptr @g_byte_array_new()
  %126 = load ptr, ptr %13, align 8
  %127 = load i32, ptr %14, align 4
  %128 = call ptr @tvb_get_ptr(ptr noundef %126, i32 noundef 0, i32 noundef %127)
  %129 = load i32, ptr %14, align 4
  %130 = call ptr @g_byte_array_append(ptr noundef %125, ptr noundef %128, i32 noundef %129)
  %131 = load ptr, ptr %11, align 8
  %132 = getelementptr inbounds nuw %struct.follow_record_t, ptr %131, i32 0, i32 4
  store ptr %130, ptr %132, align 8
  %133 = load ptr, ptr %11, align 8
  %134 = getelementptr inbounds nuw %struct.follow_record_t, ptr %133, i32 0, i32 4
  %135 = load ptr, ptr %134, align 8
  %136 = getelementptr inbounds nuw %struct._GByteArray, ptr %135, i32 0, i32 1
  %137 = load i32, ptr %136, align 8
  %138 = load ptr, ptr %12, align 8
  %139 = getelementptr inbounds nuw %struct._follow_info, ptr %138, i32 0, i32 3
  %140 = load i8, ptr %15, align 1, !range !8, !noundef !9
  %141 = trunc i8 %140 to i1
  %142 = zext i1 %141 to i64
  %143 = getelementptr [2 x i32], ptr %139, i64 0, i64 %142
  %144 = load i32, ptr %143, align 4
  %145 = add i32 %144, %137
  store i32 %145, ptr %143, align 4
  %146 = load ptr, ptr %12, align 8
  %147 = getelementptr inbounds nuw %struct._follow_info, ptr %146, i32 0, i32 2
  %148 = load ptr, ptr %147, align 8
  %149 = load ptr, ptr %11, align 8
  %150 = call ptr @g_list_prepend(ptr noundef %148, ptr noundef %149)
  %151 = load ptr, ptr %12, align 8
  %152 = getelementptr inbounds nuw %struct._follow_info, ptr %151, i32 0, i32 2
  store ptr %150, ptr %152, align 8
  call void @llvm.lifetime.end.p0(i64 1, ptr %15) #13
  call void @llvm.lifetime.end.p0(i64 4, ptr %14) #13
  call void @llvm.lifetime.end.p0(i64 8, ptr %13) #13
  call void @llvm.lifetime.end.p0(i64 8, ptr %12) #13
  call void @llvm.lifetime.end.p0(i64 8, ptr %11) #13
  ret i32 0
}