; Function Attrs: null_pointer_is_valid sspstrong uwtable
define internal noundef i32 @follow_cdc_data_tap_listener(ptr noundef captures(none) %0, ptr noundef readonly captures(none) %1, ptr readnone captures(none) %2, ptr noundef %3, i32 %4) #1 {
  %6 = tail call i32 @tvb_captured_length(ptr noundef %3)
  %7 = getelementptr inbounds nuw i8, ptr %0, i64 56
  %8 = load i32, ptr %7, align 8
  %9 = icmp eq i32 %8, 0
  br i1 %9, label %10, label %copy_address.exit50

10:                                               ; preds = %5
  %11 = getelementptr inbounds nuw i8, ptr %1, i64 284
  %12 = load i32, ptr %11, align 4
  %13 = icmp eq i32 %12, -1
  br i1 %13, label %14, label %41

14:                                               ; preds = %10
  %15 = getelementptr inbounds nuw i8, ptr %1, i64 288
  %16 = load i32, ptr %15, align 8
  store i32 %16, ptr %7, align 8
  %17 = getelementptr inbounds nuw i8, ptr %0, i64 64
  %18 = getelementptr inbounds nuw i8, ptr %1, i64 232
  %19 = load i32, ptr %18, align 8
  %20 = getelementptr inbounds nuw i8, ptr %1, i64 236
  %21 = load i32, ptr %20, align 4
  %22 = getelementptr inbounds nuw i8, ptr %1, i64 240
  %23 = load ptr, ptr %22, align 8
  tail call void @llvm.memset.p0.i64(ptr noundef nonnull align 8 dereferenceable(24) %17, i8 0, i64 24, i1 false)
  store i32 %19, ptr %17, align 8
  %24 = icmp eq i32 %21, 0
  br i1 %24, label %copy_address.exit, label %25

25:                                               ; preds = %14
  %26 = sext i32 %21 to i64
  %27 = tail call ptr @wmem_memdup(ptr noundef null, ptr noundef %23, i64 noundef %26) #13
  %28 = getelementptr inbounds nuw i8, ptr %0, i64 80
  store ptr %27, ptr %28, align 8
  %29 = getelementptr inbounds nuw i8, ptr %0, i64 72
  store ptr %27, ptr %29, align 8
  %30 = getelementptr inbounds nuw i8, ptr %0, i64 68
  store i32 %21, ptr %30, align 4
  br label %copy_address.exit

copy_address.exit:                                ; preds = %14, %25
  %31 = load i32, ptr %11, align 4
  %32 = getelementptr inbounds nuw i8, ptr %0, i64 60
  store i32 %31, ptr %32, align 4
  %33 = getelementptr inbounds nuw i8, ptr %0, i64 88
  %34 = getelementptr inbounds nuw i8, ptr %1, i64 208
  %35 = load i32, ptr %34, align 8
  %36 = getelementptr inbounds nuw i8, ptr %1, i64 212
  %37 = load i32, ptr %36, align 4
  %38 = getelementptr inbounds nuw i8, ptr %1, i64 216
  %39 = load ptr, ptr %38, align 8
  tail call void @llvm.memset.p0.i64(ptr noundef nonnull align 8 dereferenceable(24) %33, i8 0, i64 24, i1 false)
  store i32 %35, ptr %33, align 8
  %40 = icmp eq i32 %37, 0
  br i1 %40, label %copy_address.exit50, label %copy_address.exit50.sink.split

41:                                               ; preds = %10
  store i32 %12, ptr %7, align 8
  %42 = getelementptr inbounds nuw i8, ptr %0, i64 64
  %43 = getelementptr inbounds nuw i8, ptr %1, i64 208
  %44 = load i32, ptr %43, align 8
  %45 = getelementptr inbounds nuw i8, ptr %1, i64 212
  %46 = load i32, ptr %45, align 4
  %47 = getelementptr inbounds nuw i8, ptr %1, i64 216
  %48 = load ptr, ptr %47, align 8
  tail call void @llvm.memset.p0.i64(ptr noundef nonnull align 8 dereferenceable(24) %42, i8 0, i64 24, i1 false)
  store i32 %44, ptr %42, align 8
  %49 = icmp eq i32 %46, 0
  br i1 %49, label %copy_address.exit51, label %50

50:                                               ; preds = %41
  %51 = sext i32 %46 to i64
  %52 = tail call ptr @wmem_memdup(ptr noundef null, ptr noundef %48, i64 noundef %51) #13
  %53 = getelementptr inbounds nuw i8, ptr %0, i64 80
  store ptr %52, ptr %53, align 8
  %54 = getelementptr inbounds nuw i8, ptr %0, i64 72
  store ptr %52, ptr %54, align 8
  %55 = getelementptr inbounds nuw i8, ptr %0, i64 68
  store i32 %46, ptr %55, align 4
  br label %copy_address.exit51

copy_address.exit51:                              ; preds = %41, %50
  %56 = getelementptr inbounds nuw i8, ptr %1, i64 288
  %57 = load i32, ptr %56, align 8
  %58 = getelementptr inbounds nuw i8, ptr %0, i64 60
  store i32 %57, ptr %58, align 4
  %59 = getelementptr inbounds nuw i8, ptr %0, i64 88
  %60 = getelementptr inbounds nuw i8, ptr %1, i64 232
  %61 = load i32, ptr %60, align 8
  %62 = getelementptr inbounds nuw i8, ptr %1, i64 236
  %63 = load i32, ptr %62, align 4
  %64 = getelementptr inbounds nuw i8, ptr %1, i64 240
  %65 = load ptr, ptr %64, align 8
  tail call void @llvm.memset.p0.i64(ptr noundef nonnull align 8 dereferenceable(24) %59, i8 0, i64 24, i1 false)
  store i32 %61, ptr %59, align 8
  %66 = icmp eq i32 %63, 0
  br i1 %66, label %copy_address.exit50, label %copy_address.exit50.sink.split

copy_address.exit50.sink.split:                   ; preds = %copy_address.exit51, %copy_address.exit
  %.sink60 = phi i32 [ %37, %copy_address.exit ], [ %63, %copy_address.exit51 ]
  %.sink58 = phi ptr [ %39, %copy_address.exit ], [ %65, %copy_address.exit51 ]
  %67 = sext i32 %.sink60 to i64
  %68 = tail call ptr @wmem_memdup(ptr noundef null, ptr noundef %.sink58, i64 noundef %67) #13
  %69 = getelementptr inbounds nuw i8, ptr %0, i64 104
  store ptr %68, ptr %69, align 8
  %70 = getelementptr inbounds nuw i8, ptr %0, i64 96
  store ptr %68, ptr %70, align 8
  %71 = getelementptr inbounds nuw i8, ptr %0, i64 92
  store i32 %.sink60, ptr %71, align 4
  br label %copy_address.exit50

copy_address.exit50:                              ; preds = %copy_address.exit50.sink.split, %copy_address.exit51, %copy_address.exit, %5
  %72 = getelementptr inbounds nuw i8, ptr %1, i64 284
  %73 = load i32, ptr %72, align 4
  %74 = tail call noalias dereferenceable_or_null(40) ptr @g_malloc0(i64 noundef 40) #14
  %75 = icmp eq i32 %73, -1
  %76 = zext i1 %75 to i8
  store i8 %76, ptr %74, align 8
  %77 = getelementptr inbounds nuw i8, ptr %1, i64 80
  %78 = load ptr, ptr %77, align 8
  %79 = load i32, ptr %78, align 8
  %80 = getelementptr inbounds nuw i8, ptr %74, i64 4
  store i32 %79, ptr %80, align 4
  %81 = getelementptr inbounds nuw i8, ptr %74, i64 16
  %82 = getelementptr inbounds nuw i8, ptr %78, i64 64
  tail call void @llvm.memcpy.p0.p0.i64(ptr noundef nonnull align 8 dereferenceable(16) %81, ptr noundef nonnull align 8 dereferenceable(16) %82, i64 16, i1 false)
  %83 = tail call ptr @g_byte_array_new()
  %84 = tail call ptr @tvb_get_ptr(ptr noundef %3, i32 noundef 0, i32 noundef %6)
  %85 = tail call ptr @g_byte_array_append(ptr noundef %83, ptr noundef %84, i32 noundef %6)
  %86 = getelementptr inbounds nuw i8, ptr %74, i64 32
  store ptr %85, ptr %86, align 8
  %87 = getelementptr inbounds nuw i8, ptr %85, i64 8
  %88 = load i32, ptr %87, align 8
  %89 = getelementptr inbounds nuw i8, ptr %0, i64 24
  %90 = zext i1 %75 to i64
  %91 = getelementptr [2 x i32], ptr %89, i64 0, i64 %90
  %92 = load i32, ptr %91, align 4
  %93 = add i32 %92, %88
  store i32 %93, ptr %91, align 4
  %94 = getelementptr inbounds nuw i8, ptr %0, i64 16
  %95 = load ptr, ptr %94, align 8
  %96 = tail call ptr @g_list_prepend(ptr noundef %95, ptr noundef %74)
  store ptr %96, ptr %94, align 8
  ret i32 0
}